target datalayout = "e-m:e-p270:32:32-p271:32:32-p272:64:64-i64:64-i128:128-f80:128-n8:16:32:64-S128"
target triple = "x86_64-pc-linux-gnu"

%struct.LZ4IO_prefs_s = type { i32, i32, i32, i32, i64, i32, i32, i32, i32, i32, i32, i32, ptr, i32, i32 }
%struct.LZ4F_preferences_t = type { %struct.LZ4F_frameInfo_t, i32, i32, i32, [3 x i32] }
%struct.LZ4F_frameInfo_t = type { i32, i32, i32, i32, i64, i32, i32 }
%struct.cRess_t = type { ptr, i64, ptr, i64, ptr, %struct.LZ4F_preferences_t, ptr, ptr, ptr }

@g_displayLevel = internal global i32 0, align 4
@stderr = external global ptr, align 8
@.str = private unnamed_addr constant [12 x i8] c"Error %i : \00", align 1
@.str.2 = private unnamed_addr constant [3 x i8] c" \0A\00", align 1
@.str.75 = private unnamed_addr constant [50 x i8] c"Allocation error : can't create LZ4F context : %s\00", align 1
@.str.76 = private unnamed_addr constant [42 x i8] c"Allocation error : can't allocate buffers\00", align 1
@.str.77 = private unnamed_addr constant [47 x i8] c"Dictionary error : could not create dictionary\00", align 1

; Function Attrs: nounwind uwtable
define internal ptr @LZ4IO_createCDict(ptr noundef %0) #0 {
  %2 = alloca ptr, align 8
  %3 = alloca ptr, align 8
  %4 = alloca i64, align 8
  %5 = alloca ptr, align 8
  %6 = alloca ptr, align 8
  %7 = alloca i32, align 4
  store ptr %0, ptr %3, align 8, !tbaa !4
  call void @llvm.lifetime.start.p0(i64 8, ptr %4) #13
  call void @llvm.lifetime.start.p0(i64 8, ptr %5) #13
  call void @llvm.lifetime.start.p0(i64 8, ptr %6) #13
  %8 = load ptr, ptr %3, align 8, !tbaa !4
  %9 = getelementptr inbounds nuw %struct.LZ4IO_prefs_s, ptr %8, i32 0, i32 10
  %10 = load i32, ptr %9, align 4, !tbaa !26
  %11 = icmp ne i32 %10, 0
  br i1 %11, label %13, label %12

12:                                               ; preds = %1
  store ptr null, ptr %2, align 8
  store i32 1, ptr %7, align 4
  br label %64

13:                                               ; preds = %1
  %14 = load ptr, ptr %3, align 8, !tbaa !4
  %15 = getelementptr inbounds nuw %struct.LZ4IO_prefs_s, ptr %14, i32 0, i32 12
  %16 = load ptr, ptr %15, align 8, !tbaa !28
  %17 = call ptr @LZ4IO_createDict(ptr noundef %4, ptr noundef %16)
  store ptr %17, ptr %5, align 8, !tbaa !41
  %18 = load ptr, ptr %5, align 8, !tbaa !41
  %19 = icmp ne ptr %18, null
  br i1 %19, label %58, label %20

20:                                               ; preds = %13
  %21 = load i32, ptr @g_displayLevel, align 4, !tbaa !9
  %22 = icmp sge i32 %21, 1
  br i1 %22, label %23, label %32

23:                                               ; preds = %20
  %24 = load ptr, ptr @stderr, align 8, !tbaa !11
  %25 = call i32 (ptr, ptr, ...) @fprintf(ptr noundef %24, ptr noundef @.str, i32 noundef 29) #13
  %26 = load i32, ptr @g_displayLevel, align 4, !tbaa !9
  %27 = icmp sge i32 %26, 4
  br i1 %27, label %28, label %31

28:                                               ; preds = %23
  %29 = load ptr, ptr @stderr, align 8, !tbaa !11
  %30 = call i32 @fflush(ptr noundef %29)
  br label %31

31:                                               ; preds = %28, %23
  br label %32

32:                                               ; preds = %31, %20
  %33 = load i32, ptr @g_displayLevel, align 4, !tbaa !9
  %34 = icmp sge i32 %33, 1
  br i1 %34, label %35, label %44

35:                                               ; preds = %32
  %36 = load ptr, ptr @stderr, align 8, !tbaa !11
  %37 = call i32 (ptr, ptr, ...) @fprintf(ptr noundef %36, ptr noundef @.str.77) #13
  %38 = load i32, ptr @g_displayLevel, align 4, !tbaa !9
  %39 = icmp sge i32 %38, 4
  br i1 %39, label %40, label %43

40:                                               ; preds = %35
  %41 = load ptr, ptr @stderr, align 8, !tbaa !11
  %42 = call i32 @fflush(ptr noundef %41)
  br label %43

43:                                               ; preds = %40, %35
  br label %44

44:                                               ; preds = %43, %32
  %45 = load i32, ptr @g_displayLevel, align 4, !tbaa !9
  %46 = icmp sge i32 %45, 1
  br i1 %46, label %47, label %56

47:                                               ; preds = %44
  %48 = load ptr, ptr @stderr, align 8, !tbaa !11
  %49 = call i32 (ptr, ptr, ...) @fprintf(ptr noundef %48, ptr noundef @.str.2) #13
  %50 = load i32, ptr @g_displayLevel, align 4, !tbaa !9
  %51 = icmp sge i32 %50, 4
  br i1 %51, label %52, label %55

52:                                               ; preds = %47
  %53 = load ptr, ptr @stderr, align 8, !tbaa !11
  %54 = call i32 @fflush(ptr noundef %53)
  br label %55

55:                                               ; preds = %52, %47
  br label %56

56:                                               ; preds = %55, %44
  %57 = call i32 @fflush(ptr noundef null)
  call void @exit(i32 noundef 29) #15
  unreachable

58:                                               ; preds = %13
  %59 = load ptr, ptr %5, align 8, !tbaa !41
  %60 = load i64, ptr %4, align 8, !tbaa !32
  %61 = call ptr @LZ4F_createCDict(ptr noundef %59, i64 noundef %60)
  store ptr %61, ptr %6, align 8, !tbaa !131
  %62 = load ptr, ptr %5, align 8, !tbaa !41
  call void @free(ptr noundef %62) #13
  %63 = load ptr, ptr %6, align 8, !tbaa !131
  store ptr %63, ptr %2, align 8
  store i32 1, ptr %7, align 4
  br label %64

64:                                               ; preds = %58, %12
  call void @llvm.lifetime.end.p0(i64 8, ptr %6) #13
  call void @llvm.lifetime.end.p0(i64 8, ptr %5) #13
  call void @llvm.lifetime.end.p0(i64 8, ptr %4) #13
  %65 = load ptr, ptr %2, align 8
  ret ptr %65
}

; Function Attrs: nounwind uwtable
define internal void @LZ4IO_createCResources(ptr dead_on_unwind noalias writable sret(%struct.cRess_t) align 8 %0, ptr noundef %1) #0 {
  %3 = alloca ptr, align 8
  %4 = alloca i64, align 8
  %5 = alloca i64, align 8
  store ptr %1, ptr %3, align 8, !tbaa !4
  call void @llvm.lifetime.start.p0(i64 8, ptr %4) #13
  store i64 4194304, ptr %4, align 8, !tbaa !32
  call void @llvm.memset.p0.i64(ptr align 8 %0, i8 0, i64 120, i1 false)
  %6 = getelementptr inbounds nuw %struct.cRess_t, ptr %0, i32 0, i32 5
  %7 = getelementptr inbounds nuw %struct.LZ4F_preferences_t, ptr %6, i32 0, i32 2
  store i32 1, ptr %7, align 4, !tbaa !123
  %8 = load ptr, ptr %3, align 8, !tbaa !4
  %9 = getelementptr inbounds nuw %struct.LZ4IO_prefs_s, ptr %8, i32 0, i32 7
  %10 = load i32, ptr %9, align 8, !tbaa !23
  %11 = getelementptr inbounds nuw %struct.cRess_t, ptr %0, i32 0, i32 5
  %12 = getelementptr inbounds nuw %struct.LZ4F_preferences_t, ptr %11, i32 0, i32 0
  %13 = getelementptr inbounds nuw %struct.LZ4F_frameInfo_t, ptr %12, i32 0, i32 1
  store i32 %10, ptr %13, align 4, !tbaa !124
  %14 = load ptr, ptr %3, align 8, !tbaa !4
  %15 = getelementptr inbounds nuw %struct.LZ4IO_prefs_s, ptr %14, i32 0, i32 3
  %16 = load i32, ptr %15, align 4, !tbaa !19
  %17 = getelementptr inbounds nuw %struct.cRess_t, ptr %0, i32 0, i32 5
  %18 = getelementptr inbounds nuw %struct.LZ4F_preferences_t, ptr %17, i32 0, i32 0
  %19 = getelementptr inbounds nuw %struct.LZ4F_frameInfo_t, ptr %18, i32 0, i32 0
  store i32 %16, ptr %19, align 8, !tbaa !125
  %20 = load ptr, ptr %3, align 8, !tbaa !4
  %21 = getelementptr inbounds nuw %struct.LZ4IO_prefs_s, ptr %20, i32 0, i32 5
  %22 = load i32, ptr %21, align 8, !tbaa !21
  %23 = getelementptr inbounds nuw %struct.cRess_t, ptr %0, i32 0, i32 5
  %24 = getelementptr inbounds nuw %struct.LZ4F_preferences_t, ptr %23, i32 0, i32 0
  %25 = getelementptr inbounds nuw %struct.LZ4F_frameInfo_t, ptr %24, i32 0, i32 6
  store i32 %22, ptr %25, align 4, !tbaa !126
  %26 = load ptr, ptr %3, align 8, !tbaa !4
  %27 = getelementptr inbounds nuw %struct.LZ4IO_prefs_s, ptr %26, i32 0, i32 6
  %28 = load i32, ptr %27, align 4, !tbaa !22
  %29 = getelementptr inbounds nuw %struct.cRess_t, ptr %0, i32 0, i32 5
  %30 = getelementptr inbounds nuw %struct.LZ4F_preferences_t, ptr %29, i32 0, i32 0
  %31 = getelementptr inbounds nuw %struct.LZ4F_frameInfo_t, ptr %30, i32 0, i32 2
  store i32 %28, ptr %31, align 8, !tbaa !127
  %32 = load ptr, ptr %3, align 8, !tbaa !4
  %33 = getelementptr inbounds nuw %struct.LZ4IO_prefs_s, ptr %32, i32 0, i32 11
  %34 = load i32, ptr %33, align 8, !tbaa !27
  %35 = getelementptr inbounds nuw %struct.cRess_t, ptr %0, i32 0, i32 5
  %36 = getelementptr inbounds nuw %struct.LZ4F_preferences_t, ptr %35, i32 0, i32 3
  store i32 %34, ptr %36, align 8, !tbaa !128
  call void @llvm.lifetime.start.p0(i64 8, ptr %5) #13
  %37 = getelementptr inbounds nuw %struct.cRess_t, ptr %0, i32 0, i32 4
  %38 = call i64 @LZ4F_createCompressionContext(ptr noundef %37, i32 noundef 100)
  store i64 %38, ptr %5, align 8, !tbaa !32
  %39 = load i64, ptr %5, align 8, !tbaa !32
  %40 = call i32 @LZ4F_isError(i64 noundef %39)
  %41 = icmp ne i32 %40, 0
  br i1 %41, label %42, label %82

42:                                               ; preds = %2
  %43 = load i32, ptr @g_displayLevel, align 4, !tbaa !9
  %44 = icmp sge i32 %43, 1
  br i1 %44, label %45, label %54

45:                                               ; preds = %42
  %46 = load ptr, ptr @stderr, align 8, !tbaa !11
  %47 = call i32 (ptr, ptr, ...) @fprintf(ptr noundef %46, ptr noundef @.str, i32 noundef 30) #13
  %48 = load i32, ptr @g_displayLevel, align 4, !tbaa !9
  %49 = icmp sge i32 %48, 4
  br i1 %49, label %50, label %53

50:                                               ; preds = %45
  %51 = load ptr, ptr @stderr, align 8, !tbaa !11
  %52 = call i32 @fflush(ptr noundef %51)
  br label %53

53:                                               ; preds = %50, %45
  br label %54

54:                                               ; preds = %53, %42
  %55 = load i32, ptr @g_displayLevel, align 4, !tbaa !9
  %56 = icmp sge i32 %55, 1
  br i1 %56, label %57, label %68

57:                                               ; preds = %54
  %58 = load ptr, ptr @stderr, align 8, !tbaa !11
  %59 = load i64, ptr %5, align 8, !tbaa !32
  %60 = call ptr @LZ4F_getErrorName(i64 noundef %59)
  %61 = call i32 (ptr, ptr, ...) @fprintf(ptr noundef %58, ptr noundef @.str.75, ptr noundef %60) #13
  %62 = load i32, ptr @g_displayLevel, align 4, !tbaa !9
  %63 = icmp sge i32 %62, 4
  br i1 %63, label %64, label %67

64:                                               ; preds = %57
  %65 = load ptr, ptr @stderr, align 8, !tbaa !11
  %66 = call i32 @fflush(ptr noundef %65)
  br label %67

67:                                               ; preds = %64, %57
  br label %68

68:                                               ; preds = %67, %54
  %69 = load i32, ptr @g_displayLevel, align 4, !tbaa !9
  %70 = icmp sge i32 %69, 1
  br i1 %70, label %71, label %80

71:                                               ; preds = %68
  %72 = load ptr, ptr @stderr, align 8, !tbaa !11
  %73 = call i32 (ptr, ptr, ...) @fprintf(ptr noundef %72, ptr noundef @.str.2) #13
  %74 = load i32, ptr @g_displayLevel, align 4, !tbaa !9
  %75 = icmp sge i32 %74, 4
  br i1 %75, label %76, label %79

76:                                               ; preds = %71
  %77 = load ptr, ptr @stderr, align 8, !tbaa !11
  %78 = call i32 @fflush(ptr noundef %77)
  br label %79

79:                                               ; preds = %76, %71
  br label %80

80:                                               ; preds = %79, %68
  %81 = call i32 @fflush(ptr noundef null)
  call void @exit(i32 noundef 30) #15
  unreachable

82:                                               ; preds = %2
  call void @llvm.lifetime.end.p0(i64 8, ptr %5) #13
  %83 = call noalias ptr @malloc(i64 noundef 4194304) #14
  %84 = getelementptr inbounds nuw %struct.cRess_t, ptr %0, i32 0, i32 0
  store ptr %83, ptr %84, align 8, !tbaa !67
  %85 = getelementptr inbounds nuw %struct.cRess_t, ptr %0, i32 0, i32 1
  store i64 4194304, ptr %85, align 8, !tbaa !129
  %86 = getelementptr inbounds nuw %struct.cRess_t, ptr %0, i32 0, i32 5
  %87 = call i64 @LZ4F_compressFrameBound(i64 noundef 4194304, ptr noundef %86)
  %88 = getelementptr inbounds nuw %struct.cRess_t, ptr %0, i32 0, i32 3
  store i64 %87, ptr %88, align 8, !tbaa !74
  %89 = getelementptr inbounds nuw %struct.cRess_t, ptr %0, i32 0, i32 3
  %90 = load i64, ptr %89, align 8, !tbaa !74
  %91 = call noalias ptr @malloc(i64 noundef %90) #14
  %92 = getelementptr inbounds nuw %struct.cRess_t, ptr %0, i32 0, i32 2
  store ptr %91, ptr %92, align 8, !tbaa !73
  %93 = getelementptr inbounds nuw %struct.cRess_t, ptr %0, i32 0, i32 0
  %94 = load ptr, ptr %93, align 8, !tbaa !67
  %95 = icmp ne ptr %94, null
  br i1 %95, label %96, label %100

96:                                               ; preds = %82
  %97 = getelementptr inbounds nuw %struct.cRess_t, ptr %0, i32 0, i32 2
  %98 = load ptr, ptr %97, align 8, !tbaa !73
  %99 = icmp ne ptr %98, null
  br i1 %99, label %138, label %100

100:                                              ; preds = %96, %82
  %101 = load i32, ptr @g_displayLevel, align 4, !tbaa !9
  %102 = icmp sge i32 %101, 1
  br i1 %102, label %103, label %112

103:                                              ; preds = %100
  %104 = load ptr, ptr @stderr, align 8, !tbaa !11
  %105 = call i32 (ptr, ptr, ...) @fprintf(ptr noundef %104, ptr noundef @.str, i32 noundef 31) #13
  %106 = load i32, ptr @g_displayLevel, align 4, !tbaa !9
  %107 = icmp sge i32 %106, 4
  br i1 %107, label %108, label %111

108:                                              ; preds = %103
  %109 = load ptr, ptr @stderr, align 8, !tbaa !11
  %110 = call i32 @fflush(ptr noundef %109)
  br label %111

111:                                              ; preds = %108, %103
  br label %112

112:                                              ; preds = %111, %100
  %113 = load i32, ptr @g_displayLevel, align 4, !tbaa !9
  %114 = icmp sge i32 %113, 1
  br i1 %114, label %115, label %124

115:                                              ; preds = %112
  %116 = load ptr, ptr @stderr, align 8, !tbaa !11
  %117 = call i32 (ptr, ptr, ...) @fprintf(ptr noundef %116, ptr noundef @.str.76) #13
  %118 = load i32, ptr @g_displayLevel, align 4, !tbaa !9
  %119 = icmp sge i32 %118, 4
  br i1 %119, label %120, label %123

120:                                              ; preds = %115
  %121 = load ptr, ptr @stderr, align 8, !tbaa !11
  %122 = call i32 @fflush(ptr noundef %121)
  br label %123

123:                                              ; preds = %120, %115
  br label %124

124:                                              ; preds = %123, %112
  %125 = load i32, ptr @g_displayLevel, align 4, !tbaa !9
  %126 = icmp sge i32 %125, 1
  br i1 %126, label %127, label %136

127:                                              ; preds = %124
  %128 = load ptr, ptr @stderr, align 8, !tbaa !11
  %129 = call i32 (ptr, ptr, ...) @fprintf(ptr noundef %128, ptr noundef @.str.2) #13
  %130 = load i32, ptr @g_displayLevel, align 4, !tbaa !9
  %131 = icmp sge i32 %130, 4
  br i1 %131, label %132, label %135

132:                                              ; preds = %127
  %133 = load ptr, ptr @stderr, align 8, !tbaa !11
  %134 = call i32 @fflush(ptr noundef %133)
  br label %135

135:                                              ; preds = %132, %127
  br label %136

136:                                              ; preds = %135, %124
  %137 = call i32 @fflush(ptr noundef null)
  call void @exit(i32 noundef 31) #15
  unreachable

138:                                              ; preds = %96
  %139 = load ptr, ptr %3, align 8, !tbaa !4
  %140 = call ptr @LZ4IO_createCDict(ptr noundef %139)
  %141 = getelementptr inbounds nuw %struct.cRess_t, ptr %0, i32 0, i32 6
  store ptr %140, ptr %141, align 8, !tbaa !81
  %142 = getelementptr inbounds nuw %struct.cRess_t, ptr %0, i32 0, i32 7
  store ptr null, ptr %142, align 8, !tbaa !85
  %143 = getelementptr inbounds nuw %struct.cRess_t, ptr %0, i32 0, i32 8
  store ptr null, ptr %143, align 8, !tbaa !86
  call void @llvm.lifetime.end.p0(i64 8, ptr %4) #13
  ret void
}