; Function Attrs: nounwind uwtable
define internal fastcc void @LZ4IO_createCResources(ptr dead_on_unwind noalias nonnull writable align 8 initializes((0, 120)) %0, ptr noundef readonly captures(none) %1) unnamed_addr #11 {
  %3 = alloca i64, align 8
  tail call void @llvm.memset.p0.i64(ptr noundef nonnull align 8 dereferenceable(120) %0, i8 0, i64 120, i1 false)
  %4 = getelementptr inbounds nuw i8, ptr %0, i64 40
  %5 = getelementptr inbounds nuw i8, ptr %0, i64 76
  store i32 1, ptr %5, align 4, !tbaa !115
  %6 = getelementptr inbounds nuw i8, ptr %1, i64 32
  %7 = load i32, ptr %6, align 8, !tbaa !21
  %8 = getelementptr inbounds nuw i8, ptr %0, i64 44
  store i32 %7, ptr %8, align 4, !tbaa !116
  %9 = getelementptr inbounds nuw i8, ptr %1, i64 12
  %10 = load i32, ptr %9, align 4, !tbaa !17
  store i32 %10, ptr %4, align 8, !tbaa !117
  %11 = getelementptr inbounds nuw i8, ptr %1, i64 24
  %12 = load i32, ptr %11, align 8, !tbaa !19
  %13 = getelementptr inbounds nuw i8, ptr %0, i64 68
  store i32 %12, ptr %13, align 4, !tbaa !118
  %14 = getelementptr inbounds nuw i8, ptr %1, i64 28
  %15 = load i32, ptr %14, align 4, !tbaa !20
  %16 = getelementptr inbounds nuw i8, ptr %0, i64 48
  store i32 %15, ptr %16, align 8, !tbaa !119
  %17 = getelementptr inbounds nuw i8, ptr %1, i64 48
  %18 = load i32, ptr %17, align 8, !tbaa !25
  %19 = getelementptr inbounds nuw i8, ptr %0, i64 80
  store i32 %18, ptr %19, align 8, !tbaa !120
  %20 = getelementptr inbounds nuw i8, ptr %0, i64 32
  %21 = tail call i64 @LZ4F_createCompressionContext(ptr noundef nonnull %20, i32 noundef 100) #24
  %22 = tail call i32 @LZ4F_isError(i64 noundef %21) #24
  %.not = icmp eq i32 %22, 0
  br i1 %.not, label %57, label %23

23:                                               ; preds = %2
  %24 = load i32, ptr @g_displayLevel, align 4, !tbaa !4
  %25 = icmp sgt i32 %24, 0
  br i1 %25, label %26, label %.thread10

26:                                               ; preds = %23
  %27 = load ptr, ptr @stderr, align 8, !tbaa !8
  %28 = tail call i32 (ptr, ptr, ...) @fprintf(ptr noundef %27, ptr noundef nonnull @.str, i32 noundef 30) #26
  %29 = load i32, ptr @g_displayLevel, align 4, !tbaa !4
  %30 = icmp sgt i32 %29, 3
  br i1 %30, label %31, label %34

31:                                               ; preds = %26
  %32 = load ptr, ptr @stderr, align 8, !tbaa !8
  %33 = tail call i32 @fflush(ptr noundef %32)
  %.pr = load i32, ptr @g_displayLevel, align 4, !tbaa !4
  br label %34

34:                                               ; preds = %26, %31
  %35 = phi i32 [ %29, %26 ], [ %.pr, %31 ]
  %36 = icmp sgt i32 %35, 0
  br i1 %36, label %37, label %.thread10

37:                                               ; preds = %34
  %38 = load ptr, ptr @stderr, align 8, !tbaa !8
  %39 = tail call ptr @LZ4F_getErrorName(i64 noundef %21) #24
  %40 = tail call i32 (ptr, ptr, ...) @fprintf(ptr noundef %38, ptr noundef nonnull @.str.75, ptr noundef %39) #26
  %41 = load i32, ptr @g_displayLevel, align 4, !tbaa !4
  %42 = icmp sgt i32 %41, 3
  br i1 %42, label %43, label %thread-pre-split

43:                                               ; preds = %37
  %44 = load ptr, ptr @stderr, align 8, !tbaa !8
  %45 = tail call i32 @fflush(ptr noundef %44)
  %.pr9.pre = load i32, ptr @g_displayLevel, align 4, !tbaa !4
  br label %thread-pre-split

thread-pre-split:                                 ; preds = %43, %37
  %46 = phi i32 [ %41, %37 ], [ %.pr9.pre, %43 ]
  %47 = icmp sgt i32 %46, 0
  br i1 %47, label %48, label %.thread10

48:                                               ; preds = %thread-pre-split
  %49 = load ptr, ptr @stderr, align 8, !tbaa !8
  %50 = tail call i64 @fwrite(ptr nonnull @.str.2, i64 2, i64 1, ptr %49) #27
  %51 = load i32, ptr @g_displayLevel, align 4, !tbaa !4
  %52 = icmp sgt i32 %51, 3
  br i1 %52, label %53, label %.thread10

53:                                               ; preds = %48
  %54 = load ptr, ptr @stderr, align 8, !tbaa !8
  %55 = tail call i32 @fflush(ptr noundef %54)
  br label %.thread10

.thread10:                                        ; preds = %34, %23, %48, %53, %thread-pre-split
  %56 = tail call i32 @fflush(ptr noundef null)
  tail call void @exit(i32 noundef 30) #28
  unreachable

57:                                               ; preds = %2
  %58 = tail call noalias dereferenceable_or_null(4194304) ptr @malloc(i64 noundef 4194304) #25
  store ptr %58, ptr %0, align 8, !tbaa !60
  %59 = getelementptr inbounds nuw i8, ptr %0, i64 8
  store i64 4194304, ptr %59, align 8, !tbaa !121
  %60 = tail call i64 @LZ4F_compressFrameBound(i64 noundef 4194304, ptr noundef nonnull %4) #24
  %61 = getelementptr inbounds nuw i8, ptr %0, i64 24
  store i64 %60, ptr %61, align 8, !tbaa !67
  %62 = tail call noalias ptr @malloc(i64 noundef %60) #25
  %63 = getelementptr inbounds nuw i8, ptr %0, i64 16
  store ptr %62, ptr %63, align 8, !tbaa !66
  %64 = load ptr, ptr %0, align 8, !tbaa !60
  %65 = icmp ne ptr %64, null
  %66 = icmp ne ptr %62, null
  %or.cond = and i1 %66, %65
  br i1 %or.cond, label %100, label %67

67:                                               ; preds = %57
  %68 = load i32, ptr @g_displayLevel, align 4, !tbaa !4
  %69 = icmp sgt i32 %68, 0
  br i1 %69, label %70, label %.thread15

70:                                               ; preds = %67
  %71 = load ptr, ptr @stderr, align 8, !tbaa !8
  %72 = tail call i32 (ptr, ptr, ...) @fprintf(ptr noundef %71, ptr noundef nonnull @.str, i32 noundef 31) #26
  %73 = load i32, ptr @g_displayLevel, align 4, !tbaa !4
  %74 = icmp sgt i32 %73, 3
  br i1 %74, label %75, label %78

75:                                               ; preds = %70
  %76 = load ptr, ptr @stderr, align 8, !tbaa !8
  %77 = tail call i32 @fflush(ptr noundef %76)
  %.pr11 = load i32, ptr @g_displayLevel, align 4, !tbaa !4
  br label %78

78:                                               ; preds = %70, %75
  %79 = phi i32 [ %73, %70 ], [ %.pr11, %75 ]
  %80 = icmp sgt i32 %79, 0
  br i1 %80, label %81, label %.thread15

81:                                               ; preds = %78
  %82 = load ptr, ptr @stderr, align 8, !tbaa !8
  %83 = tail call i64 @fwrite(ptr nonnull @.str.76, i64 41, i64 1, ptr %82) #27
  %84 = load i32, ptr @g_displayLevel, align 4, !tbaa !4
  %85 = icmp sgt i32 %84, 3
  br i1 %85, label %86, label %thread-pre-split13

86:                                               ; preds = %81
  %87 = load ptr, ptr @stderr, align 8, !tbaa !8
  %88 = tail call i32 @fflush(ptr noundef %87)
  %.pr14.pre = load i32, ptr @g_displayLevel, align 4, !tbaa !4
  br label %thread-pre-split13

thread-pre-split13:                               ; preds = %86, %81
  %89 = phi i32 [ %84, %81 ], [ %.pr14.pre, %86 ]
  %90 = icmp sgt i32 %89, 0
  br i1 %90, label %91, label %.thread15

91:                                               ; preds = %thread-pre-split13
  %92 = load ptr, ptr @stderr, align 8, !tbaa !8
  %93 = tail call i64 @fwrite(ptr nonnull @.str.2, i64 2, i64 1, ptr %92) #27
  %94 = load i32, ptr @g_displayLevel, align 4, !tbaa !4
  %95 = icmp sgt i32 %94, 3
  br i1 %95, label %96, label %.thread15

96:                                               ; preds = %91
  %97 = load ptr, ptr @stderr, align 8, !tbaa !8
  %98 = tail call i32 @fflush(ptr noundef %97)
  br label %.thread15

.thread15:                                        ; preds = %78, %67, %91, %96, %thread-pre-split13
  %99 = tail call i32 @fflush(ptr noundef null)
  tail call void @exit(i32 noundef 31) #28
  unreachable

100:                                              ; preds = %57
  call void @llvm.lifetime.start.p0(i64 8, ptr nonnull %3) #24
  %101 = getelementptr inbounds nuw i8, ptr %1, i64 44
  %102 = load i32, ptr %101, align 4, !tbaa !24
  %.not.i = icmp eq i32 %102, 0
  br i1 %.not.i, label %LZ4IO_createCDict.exit, label %103

103:                                              ; preds = %100
  %104 = getelementptr inbounds nuw i8, ptr %1, i64 56
  %105 = load ptr, ptr %104, align 8, !tbaa !26
  %106 = call fastcc ptr @LZ4IO_createDict(ptr noundef %3, ptr noundef %105)
  %107 = load i64, ptr %3, align 8, !tbaa !29
  %108 = tail call ptr @LZ4F_createCDict(ptr noundef nonnull %106, i64 noundef %107) #24
  tail call void @free(ptr noundef nonnull %106) #24
  br label %LZ4IO_createCDict.exit

LZ4IO_createCDict.exit:                           ; preds = %100, %103
  %.0.i = phi ptr [ %108, %103 ], [ null, %100 ]
  call void @llvm.lifetime.end.p0(i64 8, ptr nonnull %3) #24
  %109 = getelementptr inbounds nuw i8, ptr %0, i64 96
  store ptr %.0.i, ptr %109, align 8, !tbaa !76
  %110 = getelementptr inbounds nuw i8, ptr %0, i64 104
  tail call void @llvm.memset.p0.i64(ptr noundef nonnull align 8 dereferenceable(16) %110, i8 0, i64 16, i1 false)
  ret void
}